; Function Attrs: mustprogress nofree norecurse nosync nounwind willreturn memory(read, inaccessiblemem: none) uwtable
define internal range(i32 0, 2) i32 @p_isEOF(ptr noundef readonly captures(none) %0) #1 {
  %2 = getelementptr inbounds nuw i8, ptr %0, i64 40
  %3 = load ptr, ptr %2, align 8
  %4 = load i32, ptr %3, align 8
  %5 = getelementptr inbounds nuw i8, ptr %0, i64 8
  %6 = load i32, ptr %5, align 8
  %7 = icmp eq i32 %4, %6
  br i1 %7, label %13, label %8

8:                                                ; preds = %1
  %9 = getelementptr inbounds nuw i8, ptr %3, i64 8
  %10 = load i32, ptr %9, align 8
  %11 = icmp eq i32 %10, 0
  %12 = zext i1 %11 to i32
  br label %13

13:                                               ; preds = %8, %1
  %14 = phi i32 [ 1, %1 ], [ %12, %8 ]
  ret i32 %14
}